; Function Attrs: mustprogress uwtable
define hidden void @_ZN4cvc58internal4prop16ZeroLevelLearner17addSimplificationERKNS0_12NodeTemplateILb1EEES6_(ptr noundef nonnull align 8 dereferenceable(1320) %0, ptr noundef nonnull readonly align 8 captures(none) dereferenceable(8) %1, ptr noundef nonnull readonly align 8 captures(none) dereferenceable(8) %2) local_unnamed_addr #4 align 2 personality ptr @__gxx_personality_v0 {
  %4 = alloca %"class.cvc5::internal::NodeTemplate", align 8
  %5 = alloca %"class.cvc5::internal::NodeTemplate", align 8
  %6 = alloca %"class.cvc5::internal::NodeTemplate", align 8
  %7 = getelementptr inbounds nuw i8, ptr %0, i64 712
  %8 = tail call noundef nonnull align 8 dereferenceable(256) ptr @_ZN4cvc58internal6theory20TrustSubstitutionMap3getEv(ptr noundef nonnull align 8 dereferenceable(608) %7)
  %9 = load ptr, ptr %1, align 8, !tbaa !350
  store ptr %9, ptr %4, align 8, !tbaa !329
  %10 = call noundef zeroext i1 @_ZNK4cvc58internal6theory15SubstitutionMap15hasSubstitutionENS0_12NodeTemplateILb0EEE(ptr noundef nonnull align 8 dereferenceable(256) %8, ptr noundef nonnull %4)
  br i1 %10, label %14, label %11

11:                                               ; preds = %3
  %12 = load ptr, ptr %1, align 8, !tbaa !350
  store ptr %12, ptr %5, align 8, !tbaa !329
  %13 = load ptr, ptr %2, align 8, !tbaa !350
  store ptr %13, ptr %6, align 8, !tbaa !329
  call void @_ZN4cvc58internal6theory20TrustSubstitutionMap15addSubstitutionENS0_12NodeTemplateILb0EEES4_PNS0_14ProofGeneratorE(ptr noundef nonnull align 8 dereferenceable(608) %7, ptr noundef nonnull %5, ptr noundef nonnull %6, ptr noundef null)
  br label %14

14:                                               ; preds = %11, %3
  ret void
}